; Function Attrs: nofree nounwind memory(read) uwtable
define dso_local range(i32 0, 2) i32 @is_terminal_dumb() local_unnamed_addr #0 {
  %1 = tail call ptr @getenv(ptr noundef nonnull @.str) #10
  %.not = icmp eq ptr %1, null
  br i1 %.not, label %5, label %2

2:                                                ; preds = %0
  %3 = tail call i32 @strcmp(ptr noundef nonnull dereferenceable(1) %1, ptr noundef nonnull dereferenceable(5) @.str.1) #11
  %.not2 = icmp eq i32 %3, 0
  %4 = zext i1 %.not2 to i32
  br label %5

5:                                                ; preds = %2, %0
  %6 = phi i32 [ 1, %0 ], [ %4, %2 ]
  ret i32 %6
}